; Function Attrs: mustprogress ssp uwtable
define noundef zeroext i1 @_ZN6open3d2io27WriteIJsonConvertibleToJSONERKNSt7__cxx1112basic_stringIcSt11char_traitsIcESaIcEEERKNS_7utility16IJsonConvertibleE(ptr noundef nonnull align 8 dereferenceable(32) %0, ptr noundef nonnull align 8 dereferenceable(8) %1) local_unnamed_addr #1 personality ptr @__gxx_personality_v0 {
  %3 = alloca %"class.std::basic_ofstream", align 8
  call void @llvm.lifetime.start.p0(i64 512, ptr nonnull %3) #27
  call void @_ZNSt14basic_ofstreamIcSt11char_traitsIcEEC1ERKNSt7__cxx1112basic_stringIcS1_SaIcEEESt13_Ios_Openmode(ptr noundef nonnull align 8 dereferenceable(248) %3, ptr noundef nonnull align 8 dereferenceable(32) %0, i32 noundef 16)
  %4 = getelementptr inbounds nuw i8, ptr %3, i64 112
  %5 = call noundef zeroext i1 @_ZNKSt12__basic_fileIcE7is_openEv(ptr noundef nonnull align 8 dereferenceable(9) %4) #28
  br i1 %5, label %9, label %6

6:                                                ; preds = %2
  invoke void @_ZN6open3d7utility6Logger11LogWarning_IJRKNSt7__cxx1112basic_stringIcSt11char_traitsIcESaIcEEEEEEvPKciSC_SC_DpOT_(ptr noundef nonnull @.str, i32 noundef 72, ptr noundef nonnull @__PRETTY_FUNCTION__._ZN6open3d2io27WriteIJsonConvertibleToJSONERKNSt7__cxx1112basic_stringIcSt11char_traitsIcESaIcEEERKNS_7utility16IJsonConvertibleE, ptr noundef nonnull @.str.52, ptr noundef nonnull align 8 dereferenceable(32) %0)
          to label %_ZNSt14basic_ofstreamIcSt11char_traitsIcEE5closeEv.exit unwind label %7

7:                                                ; preds = %6
  %8 = landingpad { ptr, i32 }
          cleanup
  br label %24

9:                                                ; preds = %2
  %10 = invoke fastcc noundef zeroext i1 @_ZN6open3d12_GLOBAL__N_133WriteIJsonConvertibleToJSONStreamERSoRKNS_7utility16IJsonConvertibleE(ptr noundef nonnull align 8 dereferenceable(8) %3, ptr noundef nonnull align 8 dereferenceable(8) %1)
          to label %11 unwind label %22

11:                                               ; preds = %9
  %12 = getelementptr inbounds nuw i8, ptr %3, i64 8
  %13 = invoke noundef ptr @_ZNSt13basic_filebufIcSt11char_traitsIcEE5closeEv(ptr noundef nonnull align 8 dereferenceable(240) %12)
          to label %.noexc unwind label %22

.noexc:                                           ; preds = %11
  %.not.i = icmp eq ptr %13, null
  br i1 %.not.i, label %14, label %_ZNSt14basic_ofstreamIcSt11char_traitsIcEE5closeEv.exit

14:                                               ; preds = %.noexc
  %15 = load ptr, ptr %3, align 8, !tbaa !4
  %16 = getelementptr i8, ptr %15, i64 -24
  %17 = load i64, ptr %16, align 8
  %18 = getelementptr inbounds i8, ptr %3, i64 %17
  %19 = getelementptr inbounds nuw i8, ptr %18, i64 32
  %20 = load i32, ptr %19, align 8, !tbaa !7
  %21 = or i32 %20, 4
  invoke void @_ZNSt9basic_iosIcSt11char_traitsIcEE5clearESt12_Ios_Iostate(ptr noundef nonnull align 8 dereferenceable(264) %18, i32 noundef %21)
          to label %_ZNSt14basic_ofstreamIcSt11char_traitsIcEE5closeEv.exit unwind label %22

22:                                               ; preds = %14, %11, %9
  %23 = landingpad { ptr, i32 }
          cleanup
  br label %24

_ZNSt14basic_ofstreamIcSt11char_traitsIcEE5closeEv.exit: ; preds = %.noexc, %14, %6
  %.0 = phi i1 [ false, %6 ], [ %10, %14 ], [ %10, %.noexc ]
  call void @_ZNSt14basic_ofstreamIcSt11char_traitsIcEED1Ev(ptr noundef nonnull align 8 dereferenceable(248) %3) #27
  call void @llvm.lifetime.end.p0(i64 512, ptr nonnull %3) #27
  ret i1 %.0

24:                                               ; preds = %22, %7
  %.pn = phi { ptr, i32 } [ %23, %22 ], [ %8, %7 ]
  call void @_ZNSt14basic_ofstreamIcSt11char_traitsIcEED1Ev(ptr noundef nonnull align 8 dereferenceable(248) %3) #27
  call void @llvm.lifetime.end.p0(i64 512, ptr nonnull %3) #27
  resume { ptr, i32 } %.pn
}